; Function Attrs: nounwind uwtable
define ptr @l_Lake_Dependency_fullName(ptr noundef %0) local_unnamed_addr #0 {
  %2 = getelementptr inbounds nuw i8, ptr %0, i64 8
  %3 = getelementptr inbounds nuw i8, ptr %0, i64 16
  %4 = load ptr, ptr %3, align 8, !tbaa !4
  %5 = ptrtoint ptr %4 to i64
  %6 = and i64 %5, 1
  %.not = icmp eq i64 %6, 0
  br i1 %.not, label %7, label %lean_inc.exit20

7:                                                ; preds = %1
  %.val.i = load i32, ptr %4, align 4, !tbaa !8
  %8 = icmp sgt i32 %.val.i, 0
  br i1 %8, label %9, label %11, !prof !11

9:                                                ; preds = %7
  %10 = add nuw i32 %.val.i, 1
  store i32 %10, ptr %4, align 4, !tbaa !8
  br label %15

11:                                               ; preds = %7
  %.not.i25 = icmp eq i32 %.val.i, 0
  br i1 %.not.i25, label %15, label %12

12:                                               ; preds = %11
  tail call void @lean_inc_ref_cold(ptr noundef nonnull %4) #4
  br label %15

lean_inc.exit20:                                  ; preds = %1
  %13 = load ptr, ptr @l_Lake_instInhabitedDependencySrc___closed__1, align 8, !tbaa !4
  %14 = tail call ptr @lean_string_append(ptr noundef %13, ptr noundef %4) #4
  br label %lean_dec.exit19

15:                                               ; preds = %12, %11, %9
  %16 = load ptr, ptr @l_Lake_instInhabitedDependencySrc___closed__1, align 8, !tbaa !4
  %17 = tail call ptr @lean_string_append(ptr noundef %16, ptr noundef nonnull %4) #4
  %18 = load i32, ptr %4, align 4, !tbaa !8
  %19 = icmp sgt i32 %18, 1
  br i1 %19, label %20, label %22, !prof !11

20:                                               ; preds = %15
  %21 = add nsw i32 %18, -1
  store i32 %21, ptr %4, align 4, !tbaa !8
  br label %lean_dec.exit19

22:                                               ; preds = %15
  %.not.i = icmp eq i32 %18, 0
  br i1 %.not.i, label %lean_dec.exit19, label %23

23:                                               ; preds = %22
  tail call void @lean_dec_ref_cold(ptr noundef nonnull %4) #4
  br label %lean_dec.exit19

lean_dec.exit19:                                  ; preds = %23, %22, %20, %lean_inc.exit20
  %24 = phi ptr [ %14, %lean_inc.exit20 ], [ %17, %20 ], [ %17, %22 ], [ %17, %23 ]
  %25 = phi ptr [ %13, %lean_inc.exit20 ], [ %16, %20 ], [ %16, %22 ], [ %16, %23 ]
  %26 = load ptr, ptr @l_Lake_Dependency_fullName___closed__1, align 8, !tbaa !4
  %27 = tail call ptr @lean_string_append(ptr noundef %24, ptr noundef %26) #4
  %28 = load ptr, ptr %2, align 8, !tbaa !4
  %29 = ptrtoint ptr %28 to i64
  %30 = and i64 %29, 1
  %.not29 = icmp eq i64 %30, 0
  br i1 %.not29, label %31, label %lean_inc.exit

31:                                               ; preds = %lean_dec.exit19
  %.val.i26 = load i32, ptr %28, align 4, !tbaa !8
  %32 = icmp sgt i32 %.val.i26, 0
  br i1 %32, label %33, label %35, !prof !11

33:                                               ; preds = %31
  %34 = add nuw i32 %.val.i26, 1
  store i32 %34, ptr %28, align 4, !tbaa !8
  br label %lean_inc.exit

35:                                               ; preds = %31
  %.not.i27 = icmp eq i32 %.val.i26, 0
  br i1 %.not.i27, label %lean_inc.exit, label %36

36:                                               ; preds = %35
  tail call void @lean_inc_ref_cold(ptr noundef nonnull %28) #4
  br label %lean_inc.exit

lean_inc.exit:                                    ; preds = %36, %35, %33, %lean_dec.exit19
  %37 = ptrtoint ptr %0 to i64
  %38 = and i64 %37, 1
  %.not30 = icmp eq i64 %38, 0
  br i1 %.not30, label %39, label %lean_dec.exit18

39:                                               ; preds = %lean_inc.exit
  %40 = load i32, ptr %0, align 4, !tbaa !8
  %41 = icmp sgt i32 %40, 1
  br i1 %41, label %42, label %44, !prof !11

42:                                               ; preds = %39
  %43 = add nsw i32 %40, -1
  store i32 %43, ptr %0, align 4, !tbaa !8
  br label %lean_dec.exit18

44:                                               ; preds = %39
  %.not.i21 = icmp eq i32 %40, 0
  br i1 %.not.i21, label %lean_dec.exit18, label %45

45:                                               ; preds = %44
  tail call void @lean_dec_ref_cold(ptr noundef nonnull %0) #4
  br label %lean_dec.exit18

lean_dec.exit18:                                  ; preds = %45, %44, %42, %lean_inc.exit
  %46 = load ptr, ptr @l_Lake_Dependency_fullName___closed__2, align 8, !tbaa !4
  %47 = tail call ptr @l_Lean_Name_toString(ptr noundef %28, i8 noundef zeroext 1, ptr noundef %46) #4
  %48 = tail call ptr @lean_string_append(ptr noundef %27, ptr noundef %47) #4
  %49 = ptrtoint ptr %47 to i64
  %50 = and i64 %49, 1
  %.not31 = icmp eq i64 %50, 0
  br i1 %.not31, label %51, label %lean_dec.exit

51:                                               ; preds = %lean_dec.exit18
  %52 = load i32, ptr %47, align 4, !tbaa !8
  %53 = icmp sgt i32 %52, 1
  br i1 %53, label %54, label %56, !prof !11

54:                                               ; preds = %51
  %55 = add nsw i32 %52, -1
  store i32 %55, ptr %47, align 4, !tbaa !8
  br label %lean_dec.exit

56:                                               ; preds = %51
  %.not.i23 = icmp eq i32 %52, 0
  br i1 %.not.i23, label %lean_dec.exit, label %57

57:                                               ; preds = %56
  tail call void @lean_dec_ref_cold(ptr noundef nonnull %47) #4
  br label %lean_dec.exit

lean_dec.exit:                                    ; preds = %57, %56, %54, %lean_dec.exit18
  %58 = tail call ptr @lean_string_append(ptr noundef %48, ptr noundef %25) #4
  ret ptr %58
}